ccopy_reg
_reconstructor
p0
(cgoogle.oauth2.credentials
Credentials
p1
c__builtin__
object
p2
Ntp3
Rp4
(dp5
S'_quota_project_id'
p6
NsS'_token_uri'
p7
Vhttps://oauth2.googleapis.com/token
p8
sS'_scopes'
p9
(lp10
S'https://www.googleapis.com/auth/drive'
p11
asS'_default_scopes'
p12
NsS'expiry'
p13
cdatetime
datetime
p14
(S"\x07\xe7\t\x18\x08'\x11\x04&\x80"
p15
tp16
Rp17
sS'token'
p18
Vya29.a0AfB_byDmPkMhtxZ9S3LZPP9LryUu4tJ96DDMXZ9pXBLQW6tJxdOshEBCKsvGDvrXMB-5W_1XR7bHQ1la6rsx24bciuHhM449I0GBcOXqENWSlnS5jRRkT6fWaGa7FHMvuz8rWZ-P5UPC1OlQ-M8L-o5qVYgc2em9BiWRaCgYKASgSARMSFQGOcNnC8AHP13006olM86LsdgvB0g0171
p19
sS'_refresh_token'
p20
V1//0gBan2EMv_oEECgYIARAAGBASNwF-L9IrypcSgkphGHpWMHqJa2brfCmfbQBVgAT7P3nKGryOoNrOKd-o1nongB3XM6VOSlNrHnk
p21
sS'_client_secret'
p22
VGOCSPX-L-lvHfoQLPwky_zYxI6zkaae0iBu
p23
sS'_client_id'
p24
V214914987587-g7l6i54e9vvikmnd71j4q920so9mi9ke.apps.googleusercontent.com
p25
sS'_id_token'
p26
NsS'_rapt_token'
p27
Nsb.